target datalayout = "e-m:e-p270:32:32-p271:32:32-p272:64:64-i64:64-i128:128-f80:128-n8:16:32:64-S128"
target triple = "x86_64-pc-linux-gnu"

%struct.jpeg_compress_struct = type { ptr, ptr, ptr, ptr, i32, i32, ptr, i32, i32, i32, i32, double, i32, i32, i32, ptr, [4 x ptr], [4 x ptr], [4 x ptr], [16 x i8], [16 x i8], [16 x i8], i32, ptr, i32, i32, i32, i32, i32, i32, i32, i32, i32, i8, i8, i8, i16, i16, i32, i32, i32, i32, i32, i32, i32, [4 x ptr], i32, i32, i32, [10 x i32], i32, i32, i32, i32, ptr, ptr, ptr, ptr, ptr, ptr, ptr, ptr, ptr, ptr, i32 }
%struct.jpeg_error_mgr = type { ptr, ptr, ptr, ptr, ptr, i32, %union.anon, i32, i64, ptr, i32, ptr, i32, i32 }
%union.anon = type { [8 x i32], [48 x i8] }
%struct.jpeg_memory_mgr = type { ptr, ptr, ptr, ptr, ptr, ptr, ptr, ptr, ptr, ptr, ptr, i64, i64 }

; Function Attrs: nounwind uwtable
define void @jpeg_CreateCompress(ptr noundef %0, i32 noundef %1, i64 noundef %2) #0 {
  %4 = alloca ptr, align 8
  %5 = alloca i32, align 4
  %6 = alloca i64, align 8
  %7 = alloca i32, align 4
  %8 = alloca ptr, align 8
  %9 = alloca ptr, align 8
  store ptr %0, ptr %4, align 8, !tbaa !3
  store i32 %1, ptr %5, align 4, !tbaa !8
  store i64 %2, ptr %6, align 8, !tbaa !10
  call void @llvm.lifetime.start.p0(i64 4, ptr %7) #4
  %10 = load ptr, ptr %4, align 8, !tbaa !3
  %11 = getelementptr inbounds nuw %struct.jpeg_compress_struct, ptr %10, i32 0, i32 1
  store ptr null, ptr %11, align 8, !tbaa !12
  %12 = load i32, ptr %5, align 4, !tbaa !8
  %13 = icmp ne i32 %12, 62
  br i1 %13, label %14, label %36

14:                                               ; preds = %3
  %15 = load ptr, ptr %4, align 8, !tbaa !3
  %16 = getelementptr inbounds nuw %struct.jpeg_compress_struct, ptr %15, i32 0, i32 0
  %17 = load ptr, ptr %16, align 8, !tbaa !29
  %18 = getelementptr inbounds nuw %struct.jpeg_error_mgr, ptr %17, i32 0, i32 5
  store i32 12, ptr %18, align 8, !tbaa !30
  %19 = load ptr, ptr %4, align 8, !tbaa !3
  %20 = getelementptr inbounds nuw %struct.jpeg_compress_struct, ptr %19, i32 0, i32 0
  %21 = load ptr, ptr %20, align 8, !tbaa !29
  %22 = getelementptr inbounds nuw %struct.jpeg_error_mgr, ptr %21, i32 0, i32 6
  %23 = getelementptr inbounds [8 x i32], ptr %22, i64 0, i64 0
  store i32 62, ptr %23, align 4, !tbaa !33
  %24 = load i32, ptr %5, align 4, !tbaa !8
  %25 = load ptr, ptr %4, align 8, !tbaa !3
  %26 = getelementptr inbounds nuw %struct.jpeg_compress_struct, ptr %25, i32 0, i32 0
  %27 = load ptr, ptr %26, align 8, !tbaa !29
  %28 = getelementptr inbounds nuw %struct.jpeg_error_mgr, ptr %27, i32 0, i32 6
  %29 = getelementptr inbounds [8 x i32], ptr %28, i64 0, i64 1
  store i32 %24, ptr %29, align 4, !tbaa !33
  %30 = load ptr, ptr %4, align 8, !tbaa !3
  %31 = getelementptr inbounds nuw %struct.jpeg_compress_struct, ptr %30, i32 0, i32 0
  %32 = load ptr, ptr %31, align 8, !tbaa !29
  %33 = getelementptr inbounds nuw %struct.jpeg_error_mgr, ptr %32, i32 0, i32 0
  %34 = load ptr, ptr %33, align 8, !tbaa !34
  %35 = load ptr, ptr %4, align 8, !tbaa !3
  call void %34(ptr noundef %35)
  br label %36

36:                                               ; preds = %14, %3
  %37 = load i64, ptr %6, align 8, !tbaa !10
  %38 = icmp ne i64 %37, 520
  br i1 %38, label %39, label %62

39:                                               ; preds = %36
  %40 = load ptr, ptr %4, align 8, !tbaa !3
  %41 = getelementptr inbounds nuw %struct.jpeg_compress_struct, ptr %40, i32 0, i32 0
  %42 = load ptr, ptr %41, align 8, !tbaa !29
  %43 = getelementptr inbounds nuw %struct.jpeg_error_mgr, ptr %42, i32 0, i32 5
  store i32 21, ptr %43, align 8, !tbaa !30
  %44 = load ptr, ptr %4, align 8, !tbaa !3
  %45 = getelementptr inbounds nuw %struct.jpeg_compress_struct, ptr %44, i32 0, i32 0
  %46 = load ptr, ptr %45, align 8, !tbaa !29
  %47 = getelementptr inbounds nuw %struct.jpeg_error_mgr, ptr %46, i32 0, i32 6
  %48 = getelementptr inbounds [8 x i32], ptr %47, i64 0, i64 0
  store i32 520, ptr %48, align 4, !tbaa !33
  %49 = load i64, ptr %6, align 8, !tbaa !10
  %50 = trunc i64 %49 to i32
  %51 = load ptr, ptr %4, align 8, !tbaa !3
  %52 = getelementptr inbounds nuw %struct.jpeg_compress_struct, ptr %51, i32 0, i32 0
  %53 = load ptr, ptr %52, align 8, !tbaa !29
  %54 = getelementptr inbounds nuw %struct.jpeg_error_mgr, ptr %53, i32 0, i32 6
  %55 = getelementptr inbounds [8 x i32], ptr %54, i64 0, i64 1
  store i32 %50, ptr %55, align 4, !tbaa !33
  %56 = load ptr, ptr %4, align 8, !tbaa !3
  %57 = getelementptr inbounds nuw %struct.jpeg_compress_struct, ptr %56, i32 0, i32 0
  %58 = load ptr, ptr %57, align 8, !tbaa !29
  %59 = getelementptr inbounds nuw %struct.jpeg_error_mgr, ptr %58, i32 0, i32 0
  %60 = load ptr, ptr %59, align 8, !tbaa !34
  %61 = load ptr, ptr %4, align 8, !tbaa !3
  call void %60(ptr noundef %61)
  br label %62

62:                                               ; preds = %39, %36
  call void @llvm.lifetime.start.p0(i64 8, ptr %8) #4
  %63 = load ptr, ptr %4, align 8, !tbaa !3
  %64 = getelementptr inbounds nuw %struct.jpeg_compress_struct, ptr %63, i32 0, i32 0
  %65 = load ptr, ptr %64, align 8, !tbaa !29
  store ptr %65, ptr %8, align 8, !tbaa !35
  call void @llvm.lifetime.start.p0(i64 8, ptr %9) #4
  %66 = load ptr, ptr %4, align 8, !tbaa !3
  %67 = getelementptr inbounds nuw %struct.jpeg_compress_struct, ptr %66, i32 0, i32 3
  %68 = load ptr, ptr %67, align 8, !tbaa !36
  store ptr %68, ptr %9, align 8, !tbaa !37
  %69 = load ptr, ptr %4, align 8, !tbaa !3
  call void @llvm.memset.p0.i64(ptr align 8 %69, i8 0, i64 520, i1 false)
  %70 = load ptr, ptr %8, align 8, !tbaa !35
  %71 = load ptr, ptr %4, align 8, !tbaa !3
  %72 = getelementptr inbounds nuw %struct.jpeg_compress_struct, ptr %71, i32 0, i32 0
  store ptr %70, ptr %72, align 8, !tbaa !29
  %73 = load ptr, ptr %9, align 8, !tbaa !37
  %74 = load ptr, ptr %4, align 8, !tbaa !3
  %75 = getelementptr inbounds nuw %struct.jpeg_compress_struct, ptr %74, i32 0, i32 3
  store ptr %73, ptr %75, align 8, !tbaa !36
  call void @llvm.lifetime.end.p0(i64 8, ptr %9) #4
  call void @llvm.lifetime.end.p0(i64 8, ptr %8) #4
  %76 = load ptr, ptr %4, align 8, !tbaa !3
  %77 = getelementptr inbounds nuw %struct.jpeg_compress_struct, ptr %76, i32 0, i32 4
  store i32 0, ptr %77, align 8, !tbaa !38
  %78 = load ptr, ptr %4, align 8, !tbaa !3
  call void @jinit_memory_mgr(ptr noundef %78)
  %79 = load ptr, ptr %4, align 8, !tbaa !3
  %80 = getelementptr inbounds nuw %struct.jpeg_compress_struct, ptr %79, i32 0, i32 2
  store ptr null, ptr %80, align 8, !tbaa !39
  %81 = load ptr, ptr %4, align 8, !tbaa !3
  %82 = getelementptr inbounds nuw %struct.jpeg_compress_struct, ptr %81, i32 0, i32 6
  store ptr null, ptr %82, align 8, !tbaa !40
  %83 = load ptr, ptr %4, align 8, !tbaa !3
  %84 = getelementptr inbounds nuw %struct.jpeg_compress_struct, ptr %83, i32 0, i32 15
  store ptr null, ptr %84, align 8, !tbaa !41
  store i32 0, ptr %7, align 4, !tbaa !8
  br label %85

85:                                               ; preds = %94, %62
  %86 = load i32, ptr %7, align 4, !tbaa !8
  %87 = icmp slt i32 %86, 4
  br i1 %87, label %88, label %97

88:                                               ; preds = %85
  %89 = load ptr, ptr %4, align 8, !tbaa !3
  %90 = getelementptr inbounds nuw %struct.jpeg_compress_struct, ptr %89, i32 0, i32 16
  %91 = load i32, ptr %7, align 4, !tbaa !8
  %92 = sext i32 %91 to i64
  %93 = getelementptr inbounds [4 x ptr], ptr %90, i64 0, i64 %92
  store ptr null, ptr %93, align 8, !tbaa !37
  br label %94

94:                                               ; preds = %88
  %95 = load i32, ptr %7, align 4, !tbaa !8
  %96 = add nsw i32 %95, 1
  store i32 %96, ptr %7, align 4, !tbaa !8
  br label %85, !llvm.loop !42

97:                                               ; preds = %85
  store i32 0, ptr %7, align 4, !tbaa !8
  br label %98

98:                                               ; preds = %112, %97
  %99 = load i32, ptr %7, align 4, !tbaa !8
  %100 = icmp slt i32 %99, 4
  br i1 %100, label %101, label %115

101:                                              ; preds = %98
  %102 = load ptr, ptr %4, align 8, !tbaa !3
  %103 = getelementptr inbounds nuw %struct.jpeg_compress_struct, ptr %102, i32 0, i32 17
  %104 = load i32, ptr %7, align 4, !tbaa !8
  %105 = sext i32 %104 to i64
  %106 = getelementptr inbounds [4 x ptr], ptr %103, i64 0, i64 %105
  store ptr null, ptr %106, align 8, !tbaa !37
  %107 = load ptr, ptr %4, align 8, !tbaa !3
  %108 = getelementptr inbounds nuw %struct.jpeg_compress_struct, ptr %107, i32 0, i32 18
  %109 = load i32, ptr %7, align 4, !tbaa !8
  %110 = sext i32 %109 to i64
  %111 = getelementptr inbounds [4 x ptr], ptr %108, i64 0, i64 %110
  store ptr null, ptr %111, align 8, !tbaa !37
  br label %112

112:                                              ; preds = %101
  %113 = load i32, ptr %7, align 4, !tbaa !8
  %114 = add nsw i32 %113, 1
  store i32 %114, ptr %7, align 4, !tbaa !8
  br label %98, !llvm.loop !44

115:                                              ; preds = %98
  %116 = load ptr, ptr %4, align 8, !tbaa !3
  %117 = getelementptr inbounds nuw %struct.jpeg_compress_struct, ptr %116, i32 0, i32 63
  store ptr null, ptr %117, align 8, !tbaa !45
  %118 = load ptr, ptr %4, align 8, !tbaa !3
  %119 = getelementptr inbounds nuw %struct.jpeg_compress_struct, ptr %118, i32 0, i32 11
  store double 1.000000e+00, ptr %119, align 8, !tbaa !46
  %120 = load ptr, ptr %4, align 8, !tbaa !3
  %121 = getelementptr inbounds nuw %struct.jpeg_compress_struct, ptr %120, i32 0, i32 12
  store i32 8, ptr %121, align 8, !tbaa !47
  %122 = load ptr, ptr %4, align 8, !tbaa !3
  %123 = getelementptr inbounds nuw %struct.jpeg_compress_struct, ptr %122, i32 0, i32 5
  store i32 100, ptr %123, align 4, !tbaa !48
  %124 = load ptr, ptr %4, align 8, !tbaa !3
  %125 = getelementptr inbounds nuw %struct.jpeg_compress_struct, ptr %124, i32 0, i32 1
  %126 = load ptr, ptr %125, align 8, !tbaa !12
  %127 = getelementptr inbounds nuw %struct.jpeg_memory_mgr, ptr %126, i32 0, i32 0
  %128 = load ptr, ptr %127, align 8, !tbaa !49
  %129 = load ptr, ptr %4, align 8, !tbaa !3
  %130 = call ptr %128(ptr noundef %129, i32 noundef 0, i64 noundef 64)
  %131 = load ptr, ptr %4, align 8, !tbaa !3
  %132 = getelementptr inbounds nuw %struct.jpeg_compress_struct, ptr %131, i32 0, i32 54
  store ptr %130, ptr %132, align 8, !tbaa !51
  %133 = load ptr, ptr %4, align 8, !tbaa !3
  %134 = getelementptr inbounds nuw %struct.jpeg_compress_struct, ptr %133, i32 0, i32 54
  %135 = load ptr, ptr %134, align 8, !tbaa !51
  call void @llvm.memset.p0.i64(ptr align 8 %135, i8 0, i64 64, i1 false)
  call void @llvm.lifetime.end.p0(i64 4, ptr %7) #4
  ret void
}